target datalayout = "e-m:e-p270:32:32-p271:32:32-p272:64:64-i64:64-i128:128-f80:128-n8:16:32:64-S128"
target triple = "x86_64-pc-linux-gnu"

%struct.mspack_system = type { ptr, ptr, ptr, ptr, ptr, ptr, ptr, ptr, ptr, ptr, ptr }
%struct.oabd_file = type { ptr, ptr, i32, i64 }

; Function Attrs: nounwind uwtable
define internal i32 @oabd_sys_read(ptr noundef %0, ptr noundef %1, i32 noundef %2) #0 {
  %4 = alloca i32, align 4
  %5 = alloca ptr, align 8
  %6 = alloca ptr, align 8
  %7 = alloca i32, align 4
  %8 = alloca ptr, align 8
  %9 = alloca i32, align 4
  %10 = alloca i32, align 4
  store ptr %0, ptr %5, align 8, !tbaa !24
  store ptr %1, ptr %6, align 8, !tbaa !33
  store i32 %2, ptr %7, align 4, !tbaa !28
  call void @llvm.lifetime.start.p0(i64 8, ptr %8) #5
  %11 = load ptr, ptr %5, align 8, !tbaa !24
  store ptr %11, ptr %8, align 8, !tbaa !43
  call void @llvm.lifetime.start.p0(i64 4, ptr %9) #5
  %12 = load i32, ptr %7, align 4, !tbaa !28
  %13 = sext i32 %12 to i64
  %14 = load ptr, ptr %8, align 8, !tbaa !43
  %15 = getelementptr inbounds nuw %struct.oabd_file, ptr %14, i32 0, i32 3
  %16 = load i64, ptr %15, align 8, !tbaa !39
  %17 = icmp ugt i64 %13, %16
  br i1 %17, label %18, label %23

18:                                               ; preds = %3
  %19 = load ptr, ptr %8, align 8, !tbaa !43
  %20 = getelementptr inbounds nuw %struct.oabd_file, ptr %19, i32 0, i32 3
  %21 = load i64, ptr %20, align 8, !tbaa !39
  %22 = trunc i64 %21 to i32
  store i32 %22, ptr %7, align 4, !tbaa !28
  br label %23

23:                                               ; preds = %18, %3
  %24 = load ptr, ptr %8, align 8, !tbaa !43
  %25 = getelementptr inbounds nuw %struct.oabd_file, ptr %24, i32 0, i32 0
  %26 = load ptr, ptr %25, align 8, !tbaa !35
  %27 = getelementptr inbounds nuw %struct.mspack_system, ptr %26, i32 0, i32 2
  %28 = load ptr, ptr %27, align 8, !tbaa !30
  %29 = load ptr, ptr %8, align 8, !tbaa !43
  %30 = getelementptr inbounds nuw %struct.oabd_file, ptr %29, i32 0, i32 1
  %31 = load ptr, ptr %30, align 8, !tbaa !38
  %32 = load ptr, ptr %6, align 8, !tbaa !33
  %33 = load i32, ptr %7, align 4, !tbaa !28
  %34 = call i32 %28(ptr noundef %31, ptr noundef %32, i32 noundef %33)
  store i32 %34, ptr %9, align 4, !tbaa !28
  %35 = load i32, ptr %9, align 4, !tbaa !28
  %36 = icmp slt i32 %35, 0
  br i1 %36, label %37, label %39

37:                                               ; preds = %23
  %38 = load i32, ptr %9, align 4, !tbaa !28
  store i32 %38, ptr %4, align 4
  store i32 1, ptr %10, align 4
  br label %47

39:                                               ; preds = %23
  %40 = load i32, ptr %9, align 4, !tbaa !28
  %41 = sext i32 %40 to i64
  %42 = load ptr, ptr %8, align 8, !tbaa !43
  %43 = getelementptr inbounds nuw %struct.oabd_file, ptr %42, i32 0, i32 3
  %44 = load i64, ptr %43, align 8, !tbaa !39
  %45 = sub i64 %44, %41
  store i64 %45, ptr %43, align 8, !tbaa !39
  %46 = load i32, ptr %9, align 4, !tbaa !28
  store i32 %46, ptr %4, align 4
  store i32 1, ptr %10, align 4
  br label %47

47:                                               ; preds = %39, %37
  call void @llvm.lifetime.end.p0(i64 4, ptr %9) #5
  call void @llvm.lifetime.end.p0(i64 8, ptr %8) #5
  %48 = load i32, ptr %4, align 4
  ret i32 %48
}