; Function Attrs: nounwind uwtable
define internal i32 @oabd_sys_read(ptr noundef captures(none) %0, ptr noundef %1, i32 noundef %2) #0 {
  %4 = sext i32 %2 to i64
  %5 = getelementptr inbounds nuw i8, ptr %0, i64 24
  %6 = load i64, ptr %5, align 8, !tbaa !28
  %spec.select15 = tail call i64 @llvm.umin.i64(i64 %6, i64 %4)
  %spec.select = trunc i64 %spec.select15 to i32
  %7 = load ptr, ptr %0, align 8, !tbaa !22
  %8 = getelementptr inbounds nuw i8, ptr %7, i64 16
  %9 = load ptr, ptr %8, align 8, !tbaa !18
  %10 = getelementptr inbounds nuw i8, ptr %0, i64 8
  %11 = load ptr, ptr %10, align 8, !tbaa !26
  %12 = tail call i32 %9(ptr noundef %11, ptr noundef %1, i32 noundef %spec.select) #6
  %13 = icmp slt i32 %12, 0
  br i1 %13, label %18, label %14

14:                                               ; preds = %3
  %15 = zext nneg i32 %12 to i64
  %16 = load i64, ptr %5, align 8, !tbaa !28
  %17 = sub i64 %16, %15
  store i64 %17, ptr %5, align 8, !tbaa !28
  br label %18

18:                                               ; preds = %3, %14
  ret i32 %12
}